(dp0
S'_AgentService:AgentInfo'
p1
(dp2
S'com.plexapp.agents.fanarttv'
p3
(lp4
(dp5
S'media_types'
p6
(lp7
S'Movie'
p8
asS'accepts_from'
p9
NsS'fallback_agent'
p10
NsS'contributes_to'
p11
(lp12
S'com.plexapp.agents.imdb'
p13
aS'com.plexapp.agents.themoviedb'
p14
asS'has_attribution'
p15
I01
sS'languages'
p16
(lp17
S'xn'
p18
asS'persist_stored_files'
p19
I01
sS'version'
p20
I0
sS'primary_provider'
p21
I00
sS'prefs'
p22
I01
sS'name'
p23
S'Fanart.tv'
p24
sa(dp25
S'media_types'
p26
(lp27
S'TV_Show'
p28
asS'accepts_from'
p29
NsS'fallback_agent'
p30
NsS'contributes_to'
p31
(lp32
S'com.plexapp.agents.thetvdb'
p33
aS'com.plexapp.agents.themoviedb'
p34
asg15
I01
sS'languages'
p35
(lp36
S'xn'
p37
asS'persist_stored_files'
p38
I01
sS'version'
p39
I0
sS'primary_provider'
p40
I00
sS'prefs'
p41
I01
sS'name'
p42
S'Fanart.tv'
p43
sa(dp44
S'media_types'
p45
(lp46
S'Artist'
p47
asS'accepts_from'
p48
NsS'fallback_agent'
p49
NsS'contributes_to'
p50
(lp51
S'com.plexapp.agents.lastfm'
p52
asg15
I01
sS'languages'
p53
(lp54
S'xn'
p55
asS'persist_stored_files'
p56
I01
sS'version'
p57
I0
sS'primary_provider'
p58
I00
sS'prefs'
p59
I01
sS'name'
p60
S'Fanart.tv'
p61
sa(dp62
S'media_types'
p63
(lp64
S'Album'
p65
asS'accepts_from'
p66
NsS'fallback_agent'
p67
NsS'contributes_to'
p68
(lp69
S'com.plexapp.agents.lastfm'
p70
asg15
I01
sS'languages'
p71
(lp72
S'xn'
p73
asS'persist_stored_files'
p74
I01
sS'version'
p75
I0
sS'primary_provider'
p76
I00
sS'prefs'
p77
I01
sS'name'
p78
S'Fanart.tv'
p79
sasS'com.plexapp.agents.none'
p80
(lp81
(dp82
S'media_types'
p83
(lp84
S'Movie'
p85
asS'accepts_from'
p86
NsS'fallback_agent'
p87
NsS'contributes_to'
p88
Nsg15
I00
sS'languages'
p89
(lp90
S'xn'
p91
asS'persist_stored_files'
p92
I01
sS'version'
p93
I0
sS'primary_provider'
p94
I01
sS'prefs'
p95
I00
sS'name'
p96
S'Personal Media'
p97
sa(dp98
S'media_types'
p99
(lp100
S'TV_Show'
p101
asS'accepts_from'
p102
NsS'fallback_agent'
p103
NsS'contributes_to'
p104
Nsg15
I00
sS'languages'
p105
(lp106
S'xn'
p107
asS'persist_stored_files'
p108
I01
sS'version'
p109
I0
sS'primary_provider'
p110
I01
sS'prefs'
p111
I00
sS'name'
p112
S'Personal Media Shows'
p113
sa(dp114
S'media_types'
p115
(lp116
S'Artist'
p117
asS'accepts_from'
p118
NsS'fallback_agent'
p119
NsS'contributes_to'
p120
Nsg15
I00
sS'languages'
p121
(lp122
S'xn'
p123
asS'persist_stored_files'
p124
I01
sS'version'
p125
I0
sS'primary_provider'
p126
I01
sS'prefs'
p127
I00
sS'name'
p128
S'Personal Media Artists'
p129
sa(dp130
S'media_types'
p131
(lp132
S'Album'
p133
asS'accepts_from'
p134
NsS'fallback_agent'
p135
NsS'contributes_to'
p136
Nsg15
I00
sS'languages'
p137
(lp138
S'xn'
p139
asS'persist_stored_files'
p140
I01
sS'version'
p141
I0
sS'primary_provider'
p142
I01
sS'prefs'
p143
I00
sS'name'
p144
S'Personal Media Albums'
p145
sa(dp146
S'media_types'
p147
(lp148
S'Photo'
p149
asS'accepts_from'
p150
NsS'fallback_agent'
p151
NsS'contributes_to'
p152
Nsg15
I00
sS'languages'
p153
(lp154
S'en'
p155
aS'ar'
p156
aS'bg'
p157
aS'ca'
p158
aS'cs'
p159
aS'cy'
p160
aS'da'
p161
aS'de'
p162
aS'el'
p163
aS'es'
p164
aS'et'
p165
aS'fa'
p166
aS'fi'
p167
aS'fr'
p168
aS'he'
p169
aS'hi'
p170
aS'hr'
p171
aS'ht'
p172
aS'hu'
p173
aS'id'
p174
aS'it'
p175
aS'ja'
p176
aS'ko'
p177
aS'lt'
p178
aS'lv'
p179
aS'ms'
p180
aS'mt'
p181
aS'nl'
p182
aS'no'
p183
aS'pl'
p184
aS'pt'
p185
aS'ro'
p186
aS'ru'
p187
aS'sk'
p188
aS'sv'
p189
aS'sl'
p190
aS'sr'
p191
aS'th'
p192
aS'tr'
p193
aS'uk'
p194
aS'ur'
p195
aS'vi'
p196
aS'zh'
p197
aS'xn'
p198
asS'persist_stored_files'
p199
I01
sS'version'
p200
I0
sS'primary_provider'
p201
I01
sS'prefs'
p202
I00
sS'name'
p203
S'Photos'
p204
sasS'com.plexapp.agents.htbackdrops'
p205
(lp206
(dp207
S'media_types'
p208
(lp209
S'Artist'
p210
asS'accepts_from'
p211
NsS'fallback_agent'
p212
NsS'contributes_to'
p213
(lp214
S'com.plexapp.agents.lastfm'
p215
asg15
I01
sS'languages'
p216
(lp217
S'ab'
p218
aS'aa'
p219
aS'af'
p220
aS'ak'
p221
aS'sq'
p222
aS'am'
p223
aS'ar'
p224
aS'an'
p225
aS'hy'
p226
aS'as'
p227
aS'av'
p228
aS'ae'
p229
aS'ay'
p230
aS'az'
p231
aS'bm'
p232
aS'ba'
p233
aS'eu'
p234
aS'be'
p235
aS'bn'
p236
aS'bh'
p237
aS'bi'
p238
aS'bs'
p239
aS'pb'
p240
aS'br'
p241
aS'bg'
p242
aS'my'
p243
aS'ca'
p244
aS'ch'
p245
aS'ce'
p246
aS'ny'
p247
aS'zh'
p248
aS'cu'
p249
aS'cv'
p250
aS'kw'
p251
aS'co'
p252
aS'cr'
p253
aS'hr'
p254
aS'cs'
p255
aS'da'
p256
aS'dv'
p257
aS'nl'
p258
aS'dz'
p259
aS'en'
p260
aS'eo'
p261
aS'et'
p262
aS'ee'
p263
aS'fo'
p264
aS'fj'
p265
aS'fi'
p266
aS'fr'
p267
aS'fy'
p268
aS'ff'
p269
aS'gd'
p270
aS'gl'
p271
aS'lg'
p272
aS'ka'
p273
aS'de'
p274
aS'el'
p275
aS'gn'
p276
aS'gu'
p277
aS'ht'
p278
aS'ha'
p279
aS'he'
p280
aS'hz'
p281
aS'hi'
p282
aS'ho'
p283
aS'hu'
p284
aS'is'
p285
aS'io'
p286
aS'ig'
p287
aS'id'
p288
aS'ia'
p289
aS'ie'
p290
aS'iu'
p291
aS'ik'
p292
aS'ga'
p293
aS'it'
p294
aS'ja'
p295
aS'jv'
p296
aS'kl'
p297
aS'kn'
p298
aS'kr'
p299
aS'ks'
p300
aS'kk'
p301
aS'km'
p302
aS'ki'
p303
aS'rw'
p304
aS'ky'
p305
aS'kv'
p306
aS'kg'
p307
aS'ko'
p308
aS'kj'
p309
aS'ku'
p310
aS'lo'
p311
aS'la'
p312
aS'lv'
p313
aS'li'
p314
aS'ln'
p315
aS'lt'
p316
aS'lu'
p317
aS'lb'
p318
aS'mk'
p319
aS'mg'
p320
aS'ms'
p321
aS'ml'
p322
aS'mt'
p323
aS'gv'
p324
aS'mi'
p325
aS'mr'
p326
aS'mh'
p327
aS'mo'
p328
aS'mn'
p329
aS'na'
p330
aS'nv'
p331
aS'ng'
p332
aS'ne'
p333
aS'xn'
p334
aS'nd'
p335
aS'no'
p336
aS'nb'
p337
aS'nn'
p338
aS'oc'
p339
aS'oj'
p340
aS'or'
p341
aS'om'
p342
aS'os'
p343
aS'pi'
p344
aS'pa'
p345
aS'fa'
p346
aS'pl'
p347
aS'pt'
p348
aS'ps'
p349
aS'qu'
p350
aS'rm'
p351
aS'ro'
p352
aS'rn'
p353
aS'ru'
p354
aS'se'
p355
aS'sm'
p356
aS'sg'
p357
aS'sa'
p358
aS'sc'
p359
aS'sr'
p360
aS'sn'
p361
aS'ii'
p362
aS'sd'
p363
aS'si'
p364
aS'sk'
p365
aS'sl'
p366
aS'so'
p367
aS'st'
p368
aS'nr'
p369
aS'es'
p370
aS'su'
p371
aS'sw'
p372
aS'ss'
p373
aS'sv'
p374
aS'tl'
p375
aS'ty'
p376
aS'tg'
p377
aS'ta'
p378
aS'tt'
p379
aS'te'
p380
aS'th'
p381
aS'bo'
p382
aS'ti'
p383
aS'to'
p384
aS'ts'
p385
aS'tn'
p386
aS'tr'
p387
aS'tk'
p388
aS'tw'
p389
aS'ug'
p390
aS'uk'
p391
aS'ur'
p392
aS'uz'
p393
aS've'
p394
aS'vi'
p395
aS'vo'
p396
aS'wa'
p397
aS'cy'
p398
aS'wo'
p399
aS'xh'
p400
aS'yi'
p401
aS'yo'
p402
aS'za'
p403
aS'zu'
p404
asS'persist_stored_files'
p405
I01
sS'version'
p406
I0
sS'primary_provider'
p407
I00
sS'prefs'
p408
I00
sS'name'
p409
S'Home Theater Backdrops'
p410
sasS'com.plexapp.agents.imdb'
p411
(lp412
(dp413
S'media_types'
p414
(lp415
S'Movie'
p416
asS'primary_provider'
p417
I01
sS'fallback_agent'
p418
NsS'contributes_to'
p419
(lp420
S'com.plexapp.agents.themoviedb'
p421
asS'has_attribution'
p422
I01
sS'languages'
p423
(lp424
S'en'
p425
aS'sv'
p426
aS'fr'
p427
aS'es'
p428
aS'nl'
p429
aS'de'
p430
aS'it'
p431
aS'da'
p432
aS'ar'
p433
aS'ca'
p434
aS'zh'
p435
aS'cs'
p436
aS'et'
p437
aS'fi'
p438
aS'el'
p439
aS'he'
p440
aS'hi'
p441
aS'hu'
p442
aS'id'
p443
aS'ja'
p444
aS'ko'
p445
aS'lv'
p446
aS'no'
p447
aS'fa'
p448
aS'pl'
p449
aS'pt'
p450
aS'ro'
p451
aS'ru'
p452
aS'sk'
p453
aS'th'
p454
aS'tr'
p455
aS'uk'
p456
aS'vi'
p457
asS'persist_stored_files'
p458
I01
sS'version'
p459
I0
sS'accepts_from'
p460
(lp461
S'com.plexapp.agents.localmedia'
p462
asS'prefs'
p463
I01
sS'name'
p464
S'Plex Movie (Legacy)'
p465
sasS'com.plexapp.agents.lyricfind'
p466
(lp467
(dp468
S'media_types'
p469
(lp470
S'Album'
p471
asS'primary_provider'
p472
I00
sS'fallback_agent'
p473
NsS'contributes_to'
p474
(lp475
S'com.plexapp.agents.lastfm'
p476
aS'tv.plex.agents.music'
p477
aS'org.musicbrainz.agents.music'
p478
asS'has_attribution'
p479
I01
sS'languages'
p480
(lp481
S'xn'
p482
asS'persist_stored_files'
p483
I01
sS'version'
p484
I0
sS'accepts_from'
p485
NsS'prefs'
p486
I00
sS'name'
p487
S'LyricFind'
p488
sasS'com.plexapp.agents.thetvdb'
p489
(lp490
(dp491
S'media_types'
p492
(lp493
S'TV_Show'
p494
asS'accepts_from'
p495
NsS'fallback_agent'
p496
NsS'contributes_to'
p497
Nsg15
I01
sS'languages'
p498
(lp499
S'en'
p500
aS'fr'
p501
aS'zh'
p502
aS'sv'
p503
aS'no'
p504
aS'da'
p505
aS'fi'
p506
aS'nl'
p507
aS'de'
p508
aS'it'
p509
aS'es'
p510
aS'pl'
p511
aS'hu'
p512
aS'el'
p513
aS'tr'
p514
aS'ru'
p515
aS'he'
p516
aS'ja'
p517
aS'pt'
p518
aS'cs'
p519
aS'ko'
p520
aS'sl'
p521
aS'hr'
p522
asS'persist_stored_files'
p523
I01
sS'version'
p524
I0
sS'primary_provider'
p525
I01
sS'prefs'
p526
I01
sS'name'
p527
S'TheTVDB'
p528
sasS'com.plexapp.agents.plexthememusic'
p529
(lp530
(dp531
S'media_types'
p532
(lp533
S'TV_Show'
p534
asS'accepts_from'
p535
NsS'fallback_agent'
p536
NsS'contributes_to'
p537
(lp538
S'com.plexapp.agents.thetvdb'
p539
aS'com.plexapp.agents.thetvdbdvdorder'
p540
aS'com.plexapp.agents.themoviedb'
p541
asg15
I00
sS'languages'
p542
(lp543
S'xn'
p544
asS'persist_stored_files'
p545
I01
sS'version'
p546
I0
sS'primary_provider'
p547
I00
sS'prefs'
p548
I00
sS'name'
p549
S'Plex Theme Music'
p550
sasS'org.musicbrainz.agents.music'
p551
(lp552
(dp553
S'media_types'
p554
(lp555
S'Artist'
p556
asS'accepts_from'
p557
NsS'fallback_agent'
p558
NsS'contributes_to'
p559
Nsg15
I01
sS'languages'
p560
(lp561
S'en'
p562
aS'ar'
p563
aS'bg'
p564
aS'zh'
p565
aS'hr'
p566
aS'cs'
p567
aS'da'
p568
aS'nl'
p569
aS'fi'
p570
aS'fr'
p571
aS'de'
p572
aS'el'
p573
aS'hu'
p574
aS'id'
p575
aS'it'
p576
aS'ja'
p577
aS'ko'
p578
aS'nn'
p579
aS'pl'
p580
aS'pt'
p581
aS'ro'
p582
aS'ru'
p583
aS'sr'
p584
aS'sk'
p585
aS'es'
p586
aS'sv'
p587
aS'th'
p588
aS'tr'
p589
aS'vi'
p590
aS'xx'
p591
asS'persist_stored_files'
p592
I01
sS'version'
p593
I0
sS'primary_provider'
p594
I01
sS'prefs'
p595
I01
sS'name'
p596
S'Musicbrainz'
p597
sa(dp598
S'media_types'
p599
(lp600
S'Album'
p601
asS'accepts_from'
p602
NsS'fallback_agent'
p603
NsS'contributes_to'
p604
Nsg15
I01
sS'languages'
p605
g561
sS'persist_stored_files'
p606
I01
sS'version'
p607
I0
sS'primary_provider'
p608
I01
sS'prefs'
p609
I01
sS'name'
p610
S'Musicbrainz'
p611
sasS'com.plexapp.agents.themoviedb'
p612
(lp613
(dp614
S'media_types'
p615
(lp616
S'Movie'
p617
asS'accepts_from'
p618
(lp619
S'com.plexapp.agents.localmedia'
p620
asS'fallback_agent'
p621
NsS'contributes_to'
p622
Nsg15
I01
sS'languages'
p623
(lp624
S'en'
p625
aS'cs'
p626
aS'da'
p627
aS'de'
p628
aS'el'
p629
aS'es'
p630
aS'fi'
p631
aS'fr'
p632
aS'he'
p633
aS'hr'
p634
aS'hu'
p635
aS'it'
p636
aS'lv'
p637
aS'lt'
p638
aS'nl'
p639
aS'no'
p640
aS'pl'
p641
aS'pt'
p642
aS'ru'
p643
aS'sk'
p644
aS'sv'
p645
aS'th'
p646
aS'tr'
p647
aS'vi'
p648
aS'zh'
p649
aS'ko'
p650
asS'persist_stored_files'
p651
I01
sS'version'
p652
I0
sS'primary_provider'
p653
I01
sS'prefs'
p654
I01
sS'name'
p655
S'The Movie Database'
p656
sa(dp657
S'media_types'
p658
(lp659
S'TV_Show'
p660
asS'accepts_from'
p661
(lp662
S'com.plexapp.agents.localmedia'
p663
aS'com.plexapp.agents.thetvdb'
p664
asS'fallback_agent'
p665
NsS'contributes_to'
p666
(lp667
S'com.plexapp.agents.thetvdb'
p668
asg15
I01
sS'languages'
p669
g624
sS'persist_stored_files'
p670
I01
sS'version'
p671
I0
sS'primary_provider'
p672
I01
sS'prefs'
p673
I01
sS'name'
p674
S'The Movie Database'
p675
sasS'com.plexapp.agents.movieposterdb'
p676
(lp677
(dp678
S'media_types'
p679
(lp680
S'Movie'
p681
asS'accepts_from'
p682
NsS'fallback_agent'
p683
NsS'contributes_to'
p684
(lp685
S'com.plexapp.agents.imdb'
p686
asg15
I01
sS'languages'
p687
(lp688
S'xn'
p689
asS'persist_stored_files'
p690
I01
sS'version'
p691
I0
sS'primary_provider'
p692
I00
sS'prefs'
p693
I00
sS'name'
p694
S'CineMaterial'
p695
sasS'com.plexapp.agents.localmedia'
p696
(lp697
(dp698
S'media_types'
p699
(lp700
S'Movie'
p701
asS'primary_provider'
p702
I00
sS'fallback_agent'
p703
NsS'contributes_to'
p704
(lp705
S'com.plexapp.agents.imdb'
p706
aS'com.plexapp.agents.none'
p707
asS'has_attribution'
p708
I00
sS'languages'
p709
(lp710
S'xn'
p711
asS'persist_stored_files'
p712
I00
sS'version'
p713
I0
sS'accepts_from'
p714
NsS'prefs'
p715
I01
sS'name'
p716
S'Local Media Assets (Movies)'
p717
sa(dp718
S'media_types'
p719
(lp720
S'TV_Show'
p721
asS'primary_provider'
p722
I00
sS'fallback_agent'
p723
NsS'contributes_to'
p724
(lp725
S'com.plexapp.agents.thetvdb'
p726
aS'com.plexapp.agents.none'
p727
asg708
I00
sS'languages'
p728
(lp729
S'xn'
p730
asS'persist_stored_files'
p731
I00
sS'version'
p732
I0
sS'accepts_from'
p733
NsS'prefs'
p734
I01
sS'name'
p735
S'Local Media Assets (TV)'
p736
sa(dp737
S'media_types'
p738
(lp739
S'Artist'
p740
asS'primary_provider'
p741
I00
sS'fallback_agent'
p742
NsS'contributes_to'
p743
(lp744
S'com.plexapp.agents.discogs'
p745
aS'com.plexapp.agents.lastfm'
p746
aS'com.plexapp.agents.plexmusic'
p747
aS'com.plexapp.agents.none'
p748
aS'tv.plex.agents.music'
p749
aS'org.musicbrainz.agents.music'
p750
asg708
I00
sS'languages'
p751
(lp752
S'xn'
p753
asS'persist_stored_files'
p754
I00
sS'version'
p755
I0
sS'accepts_from'
p756
NsS'prefs'
p757
I01
sS'name'
p758
S'Local Media Assets (Artists)'
p759
sa(dp760
S'media_types'
p761
(lp762
S'Artist'
p763
asS'primary_provider'
p764
I00
sS'fallback_agent'
p765
NsS'contributes_to'
p766
(lp767
S'com.plexapp.agents.plexmusic'
p768
asg708
I00
sS'languages'
p769
g752
sS'persist_stored_files'
p770
I00
sS'version'
p771
I2
sS'accepts_from'
p772
NsS'prefs'
p773
I01
sS'name'
p774
S'Local Media Assets (Artists)'
p775
sa(dp776
S'media_types'
p777
(lp778
S'Album'
p779
asS'primary_provider'
p780
I00
sS'fallback_agent'
p781
NsS'contributes_to'
p782
(lp783
S'com.plexapp.agents.discogs'
p784
aS'com.plexapp.agents.lastfm'
p785
aS'com.plexapp.agents.plexmusic'
p786
aS'com.plexapp.agents.none'
p787
aS'tv.plex.agents.music'
p788
aS'org.musicbrainz.agents.music'
p789
asg708
I00
sS'languages'
p790
(lp791
S'xn'
p792
asS'persist_stored_files'
p793
I00
sS'version'
p794
I0
sS'accepts_from'
p795
NsS'prefs'
p796
I01
sS'name'
p797
S'Local Media Assets (Albums)'
p798
sasS'com.plexapp.agents.lastfm'
p799
(lp800
(dp801
S'media_types'
p802
(lp803
S'Artist'
p804
asS'accepts_from'
p805
NsS'fallback_agent'
p806
NsS'contributes_to'
p807
Nsg15
I01
sS'languages'
p808
(lp809
S'en'
p810
aS'sv'
p811
aS'fr'
p812
aS'es'
p813
aS'de'
p814
aS'pl'
p815
aS'it'
p816
aS'pt'
p817
aS'ja'
p818
aS'tr'
p819
aS'ru'
p820
aS'zh'
p821
asS'persist_stored_files'
p822
I01
sS'version'
p823
I0
sS'primary_provider'
p824
I01
sS'prefs'
p825
I01
sS'name'
p826
S'Last.fm'
p827
sa(dp828
S'media_types'
p829
(lp830
S'Album'
p831
asS'accepts_from'
p832
NsS'fallback_agent'
p833
NsS'contributes_to'
p834
Nsg15
I01
sS'languages'
p835
(lp836
S'en'
p837
aS'sv'
p838
aS'fr'
p839
aS'es'
p840
aS'de'
p841
aS'pl'
p842
aS'it'
p843
aS'pt'
p844
aS'ja'
p845
aS'tr'
p846
aS'ru'
p847
aS'zh'
p848
asS'persist_stored_files'
p849
I01
sS'version'
p850
I0
sS'primary_provider'
p851
I01
sS'prefs'
p852
I01
sS'name'
p853
S'Last.fm'
p854
sass.